target datalayout = "e-m:e-p270:32:32-p271:32:32-p272:64:64-i64:64-i128:128-f80:128-n8:16:32:64-S128"
target triple = "x86_64-pc-linux-gnu"

%class.LIR_Opr = type { i64 }
%class.LIR_OpBranch = type { %class.LIR_Op2.base, ptr, ptr, ptr, ptr }
%class.LIR_Op2.base = type <{ %class.LIR_Op, i32, [4 x i8], %class.LIR_Opr, %class.LIR_Opr, i8, [7 x i8], %class.LIR_Opr, %class.LIR_Opr, %class.LIR_Opr, %class.LIR_Opr, %class.LIR_Opr, i32 }>
%class.LIR_Op = type { ptr, %class.LIR_Opr, i16, i16, ptr, i32, i32, ptr }
%class.BlockBegin = type { %class.StateSplit, i32, i32, i32, i32, i32, i32, i32, i32, i32, %class.ResourceBitMap, %class.BlockList, %class.BlockList, ptr, ptr, %class.BlockList, ptr, i32, [4 x i8], %class.Label, ptr, %class.ResourceBitMap, %class.ResourceBitMap, %class.ResourceBitMap, %class.ResourceBitMap, %class.ResourceBitMap, ptr, i32, i32 }
%class.StateSplit = type { %class.Instruction, ptr }
%class.Instruction = type { ptr, i32, i32, i32, ptr, ptr, ptr, %class.LIR_Opr, i32, ptr, ptr, ptr, ptr }
%class.BlockList = type { %class.GrowableArray }
%class.GrowableArray = type { %class.GrowableArrayWithAllocator, %class.GrowableArrayMetadata }
%class.GrowableArrayWithAllocator = type { %class.GrowableArrayView }
%class.GrowableArrayView = type { %class.GrowableArrayBase, ptr }
%class.GrowableArrayBase = type { i32, i32 }
%class.GrowableArrayMetadata = type { i64 }
%class.Label = type <{ i32, [4 x i32], i32, ptr, i8, [7 x i8] }>
%class.ResourceBitMap = type { %class.GrowableBitMap }
%class.GrowableBitMap = type { %class.BitMap }
%class.BitMap = type { ptr, i64 }
%class.LIR_Op2 = type <{ %class.LIR_Op, i32, [4 x i8], %class.LIR_Opr, %class.LIR_Opr, i8, [7 x i8], %class.LIR_Opr, %class.LIR_Opr, %class.LIR_Opr, %class.LIR_Opr, %class.LIR_Opr, i32, [4 x i8] }>

@_ZN11LIR_OprFact10illegalOprE = hidden global %class.LIR_Opr zeroinitializer, align 8

; Function Attrs: mustprogress nounwind uwtable
define linkonce_odr hidden void @_ZN6LIR_OpC2E8LIR_Code7LIR_OprP12CodeEmitInfo(ptr noundef nonnull align 8 dereferenceable(48) %0, i32 noundef %1, i64 %2, ptr noundef %3) unnamed_addr #1 comdat align 2 {
  %5 = alloca %class.LIR_Opr, align 8
  %6 = alloca ptr, align 8
  %7 = alloca i32, align 4
  %8 = alloca ptr, align 8
  %9 = getelementptr inbounds %class.LIR_Opr, ptr %5, i32 0, i32 0
  store i64 %2, ptr %9, align 8
  store ptr %0, ptr %6, align 8
  store i32 %1, ptr %7, align 4
  store ptr %3, ptr %8, align 8
  %10 = load ptr, ptr %6, align 8
  store ptr getelementptr inbounds inrange(-16, 248) ({ [33 x ptr] }, ptr @_ZTV6LIR_Op, i32 0, i32 0, i32 2), ptr %10, align 8
  %11 = getelementptr inbounds %class.LIR_Op, ptr %10, i32 0, i32 1
  call void @llvm.memcpy.p0.p0.i64(ptr align 8 %11, ptr align 8 %5, i64 8, i1 false)
  %12 = getelementptr inbounds %class.LIR_Op, ptr %10, i32 0, i32 2
  %13 = load i32, ptr %7, align 4
  %14 = trunc i32 %13 to i16
  store i16 %14, ptr %12, align 8
  %15 = getelementptr inbounds %class.LIR_Op, ptr %10, i32 0, i32 3
  store i16 0, ptr %15, align 2
  %16 = getelementptr inbounds %class.LIR_Op, ptr %10, i32 0, i32 4
  %17 = load ptr, ptr %8, align 8
  store ptr %17, ptr %16, align 8
  %18 = getelementptr inbounds %class.LIR_Op, ptr %10, i32 0, i32 5
  store i32 -1, ptr %18, align 8
  %19 = getelementptr inbounds %class.LIR_Op, ptr %10, i32 0, i32 6
  store i32 0, ptr %19, align 4
  %20 = getelementptr inbounds %class.LIR_Op, ptr %10, i32 0, i32 7
  store ptr null, ptr %20, align 8
  ret void
}

; Function Attrs: mustprogress nounwind uwtable
define linkonce_odr hidden noundef ptr @_ZN10BlockBegin5labelEv(ptr noundef nonnull align 8 dereferenceable(408) %0) #1 comdat align 2 {
  %2 = alloca ptr, align 8
  store ptr %0, ptr %2, align 8
  %3 = load ptr, ptr %2, align 8
  %4 = getelementptr inbounds %class.BlockBegin, ptr %3, i32 0, i32 19
  ret ptr %4
}

; Function Attrs: mustprogress nounwind uwtable
define linkonce_odr hidden void @_ZN7LIR_Op2C2E8LIR_Code13LIR_Condition7LIR_OprS2_P12CodeEmitInfo9BasicType(ptr noundef nonnull align 8 dereferenceable(124) %0, i32 noundef %1, i32 noundef %2, i64 %3, i64 %4, ptr noundef %5, i8 noundef zeroext %6) unnamed_addr #1 comdat align 2 {
  %8 = alloca %class.LIR_Opr, align 8
  %9 = alloca %class.LIR_Opr, align 8
  %10 = alloca ptr, align 8
  %11 = alloca i32, align 4
  %12 = alloca i32, align 4
  %13 = alloca ptr, align 8
  %14 = alloca i8, align 1
  %15 = alloca %class.LIR_Opr, align 8
  %16 = getelementptr inbounds %class.LIR_Opr, ptr %8, i32 0, i32 0
  store i64 %3, ptr %16, align 8
  %17 = getelementptr inbounds %class.LIR_Opr, ptr %9, i32 0, i32 0
  store i64 %4, ptr %17, align 8
  store ptr %0, ptr %10, align 8
  store i32 %1, ptr %11, align 4
  store i32 %2, ptr %12, align 4
  store ptr %5, ptr %13, align 8
  store i8 %6, ptr %14, align 1
  %18 = load ptr, ptr %10, align 8
  %19 = load i32, ptr %11, align 4
  call void @llvm.memcpy.p0.p0.i64(ptr align 8 %15, ptr align 8 @_ZN11LIR_OprFact10illegalOprE, i64 8, i1 false)
  %20 = load ptr, ptr %13, align 8
  %21 = getelementptr inbounds %class.LIR_Opr, ptr %15, i32 0, i32 0
  %22 = load i64, ptr %21, align 8
  call void @_ZN6LIR_OpC2E8LIR_Code7LIR_OprP12CodeEmitInfo(ptr noundef nonnull align 8 dereferenceable(48) %18, i32 noundef %19, i64 %22, ptr noundef %20)
  store ptr getelementptr inbounds inrange(-16, 248) ({ [33 x ptr] }, ptr @_ZTV7LIR_Op2, i32 0, i32 0, i32 2), ptr %18, align 8
  %23 = getelementptr inbounds %class.LIR_Op2, ptr %18, i32 0, i32 1
  store i32 0, ptr %23, align 8
  %24 = getelementptr inbounds %class.LIR_Op2, ptr %18, i32 0, i32 3
  call void @llvm.memcpy.p0.p0.i64(ptr align 8 %24, ptr align 8 %8, i64 8, i1 false)
  %25 = getelementptr inbounds %class.LIR_Op2, ptr %18, i32 0, i32 4
  call void @llvm.memcpy.p0.p0.i64(ptr align 8 %25, ptr align 8 %9, i64 8, i1 false)
  %26 = getelementptr inbounds %class.LIR_Op2, ptr %18, i32 0, i32 5
  %27 = load i8, ptr %14, align 1
  store i8 %27, ptr %26, align 8
  %28 = getelementptr inbounds %class.LIR_Op2, ptr %18, i32 0, i32 7
  call void @llvm.memcpy.p0.p0.i64(ptr align 8 %28, ptr align 8 @_ZN11LIR_OprFact10illegalOprE, i64 8, i1 false)
  %29 = getelementptr inbounds %class.LIR_Op2, ptr %18, i32 0, i32 8
  call void @llvm.memcpy.p0.p0.i64(ptr align 8 %29, ptr align 8 @_ZN11LIR_OprFact10illegalOprE, i64 8, i1 false)
  %30 = getelementptr inbounds %class.LIR_Op2, ptr %18, i32 0, i32 9
  call void @llvm.memcpy.p0.p0.i64(ptr align 8 %30, ptr align 8 @_ZN11LIR_OprFact10illegalOprE, i64 8, i1 false)
  %31 = getelementptr inbounds %class.LIR_Op2, ptr %18, i32 0, i32 10
  call void @llvm.memcpy.p0.p0.i64(ptr align 8 %31, ptr align 8 @_ZN11LIR_OprFact10illegalOprE, i64 8, i1 false)
  %32 = getelementptr inbounds %class.LIR_Op2, ptr %18, i32 0, i32 11
  call void @llvm.memcpy.p0.p0.i64(ptr align 8 %32, ptr align 8 @_ZN11LIR_OprFact10illegalOprE, i64 8, i1 false)
  %33 = getelementptr inbounds %class.LIR_Op2, ptr %18, i32 0, i32 12
  %34 = load i32, ptr %12, align 4
  store i32 %34, ptr %33, align 8
  ret void
}

; Function Attrs: mustprogress nounwind uwtable
define hidden void @_ZN12LIR_OpBranchC2E13LIR_ConditionP10BlockBegin(ptr noundef nonnull align 8 dereferenceable(160) %0, i32 noundef %1, ptr noundef %2) unnamed_addr #1 align 2 {
  %4 = alloca ptr, align 8
  %5 = alloca i32, align 4
  %6 = alloca ptr, align 8
  %7 = alloca %class.LIR_Opr, align 8
  %8 = alloca %class.LIR_Opr, align 8
  store ptr %0, ptr %4, align 8
  store i32 %1, ptr %5, align 4
  store ptr %2, ptr %6, align 8
  %9 = load ptr, ptr %4, align 8
  %10 = load i32, ptr %5, align 4
  call void @llvm.memcpy.p0.p0.i64(ptr align 8 %7, ptr align 8 @_ZN11LIR_OprFact10illegalOprE, i64 8, i1 false)
  call void @llvm.memcpy.p0.p0.i64(ptr align 8 %8, ptr align 8 @_ZN11LIR_OprFact10illegalOprE, i64 8, i1 false)
  %11 = getelementptr inbounds %class.LIR_Opr, ptr %7, i32 0, i32 0
  %12 = load i64, ptr %11, align 8
  %13 = getelementptr inbounds %class.LIR_Opr, ptr %8, i32 0, i32 0
  %14 = load i64, ptr %13, align 8
  call void @_ZN7LIR_Op2C2E8LIR_Code13LIR_Condition7LIR_OprS2_P12CodeEmitInfo9BasicType(ptr noundef nonnull align 8 dereferenceable(124) %9, i32 noundef 37, i32 noundef %10, i64 %12, i64 %14, ptr noundef null, i8 noundef zeroext 99)
  store ptr getelementptr inbounds inrange(-16, 248) ({ [33 x ptr] }, ptr @_ZTV12LIR_OpBranch, i32 0, i32 0, i32 2), ptr %9, align 8
  %15 = getelementptr inbounds %class.LIR_OpBranch, ptr %9, i32 0, i32 1
  %16 = load ptr, ptr %6, align 8
  %17 = call noundef ptr @_ZN10BlockBegin5labelEv(ptr noundef nonnull align 8 dereferenceable(408) %16)
  store ptr %17, ptr %15, align 8
  %18 = getelementptr inbounds %class.LIR_OpBranch, ptr %9, i32 0, i32 2
  %19 = load ptr, ptr %6, align 8
  store ptr %19, ptr %18, align 8
  %20 = getelementptr inbounds %class.LIR_OpBranch, ptr %9, i32 0, i32 3
  store ptr null, ptr %20, align 8
  %21 = getelementptr inbounds %class.LIR_OpBranch, ptr %9, i32 0, i32 4
  store ptr null, ptr %21, align 8
  ret void
}