; Function Attrs: mustprogress nofree norecurse nosync nounwind willreturn memory(read, argmem: write, inaccessiblemem: none) uwtable
define hidden void @_ZN12LIR_OpBranchC2E13LIR_ConditionP10BlockBegin(ptr nocapture noundef nonnull writeonly align 8 dereferenceable(160) %0, i32 noundef %1, ptr noundef %2) unnamed_addr #5 align 2 {
  %.sroa.01.0.copyload = load i64, ptr @_ZN11LIR_OprFact10illegalOprE, align 8
  %4 = getelementptr inbounds i8, ptr %0, i64 8
  store i64 %.sroa.01.0.copyload, ptr %4, align 8
  %5 = getelementptr inbounds i8, ptr %0, i64 16
  store i16 37, ptr %5, align 8
  %6 = getelementptr inbounds i8, ptr %0, i64 18
  store i16 0, ptr %6, align 2
  %7 = getelementptr inbounds i8, ptr %0, i64 24
  store ptr null, ptr %7, align 8
  %8 = getelementptr inbounds i8, ptr %0, i64 32
  store i32 -1, ptr %8, align 8
  %9 = getelementptr inbounds i8, ptr %0, i64 36
  store i32 0, ptr %9, align 4
  %10 = getelementptr inbounds i8, ptr %0, i64 40
  store ptr null, ptr %10, align 8
  %11 = getelementptr inbounds i8, ptr %0, i64 48
  store i32 0, ptr %11, align 8
  %12 = getelementptr inbounds i8, ptr %0, i64 56
  store i64 %.sroa.01.0.copyload, ptr %12, align 8
  %13 = getelementptr inbounds i8, ptr %0, i64 64
  store i64 %.sroa.01.0.copyload, ptr %13, align 8
  %14 = getelementptr inbounds i8, ptr %0, i64 72
  store i8 99, ptr %14, align 8
  %15 = getelementptr inbounds i8, ptr %0, i64 80
  %16 = insertelement <4 x i64> poison, i64 %.sroa.01.0.copyload, i64 0
  %17 = shufflevector <4 x i64> %16, <4 x i64> poison, <4 x i32> zeroinitializer
  store <4 x i64> %17, ptr %15, align 8
  %18 = getelementptr inbounds i8, ptr %0, i64 112
  store i64 %.sroa.01.0.copyload, ptr %18, align 8
  %19 = getelementptr inbounds i8, ptr %0, i64 120
  store i32 %1, ptr %19, align 8
  store ptr getelementptr inbounds inrange(-16, 248) (i8, ptr @_ZTV12LIR_OpBranch, i64 16), ptr %0, align 8
  %20 = getelementptr inbounds i8, ptr %0, i64 128
  %21 = getelementptr inbounds i8, ptr %2, i64 264
  store ptr %21, ptr %20, align 8
  %22 = getelementptr inbounds i8, ptr %0, i64 136
  store ptr %2, ptr %22, align 8
  %23 = getelementptr inbounds i8, ptr %0, i64 144
  tail call void @llvm.memset.p0.i64(ptr noundef nonnull align 8 dereferenceable(16) %23, i8 0, i64 16, i1 false)
  ret void
}